target datalayout = "e-m:e-p270:32:32-p271:32:32-p272:64:64-i64:64-i128:128-f80:128-n8:16:32:64-S128"
target triple = "x86_64-pc-linux-gnu"

%struct.archive_read_filter_vtable = type { ptr, ptr, ptr }
%struct.archive_read = type { %struct.archive, ptr, i32, i64, i64, %struct.archive_read_client, [16 x %struct.archive_read_filter_bidder], ptr, i32, i64, i32, i32, [16 x %struct.archive_format_descriptor], ptr, ptr, ptr, %struct.anon }
%struct.archive = type { i32, i32, ptr, i32, ptr, i32, i32, ptr, %struct.archive_string, ptr, i32, i32, ptr, ptr, i64, i64, i64, i8, i64 }
%struct.archive_string = type { ptr, i64, i64 }
%struct.archive_read_client = type { ptr, ptr, ptr, ptr, ptr, ptr, i32, i32, i64, ptr }
%struct.archive_read_filter_bidder = type { ptr, ptr, ptr }
%struct.archive_format_descriptor = type { ptr, ptr, ptr, ptr, ptr, ptr, ptr, ptr, ptr, ptr, ptr }
%struct.anon = type { ptr, ptr, i32, ptr, ptr }
%struct.archive_read_filter = type { i64, ptr, ptr, ptr, ptr, ptr, ptr, i32, i32, i32, ptr, i64, ptr, i64, ptr, i64, ptr, i64, i8, i8, i8 }

; Function Attrs: nounwind uwtable
define dso_local i32 @__archive_read_header(ptr noundef %0, ptr noundef %1) #0 {
  %3 = alloca i32, align 4
  %4 = alloca ptr, align 8
  %5 = alloca ptr, align 8
  store ptr %0, ptr %4, align 8, !tbaa !4
  store ptr %1, ptr %5, align 8, !tbaa !90
  %6 = load ptr, ptr %4, align 8, !tbaa !4
  %7 = getelementptr inbounds nuw %struct.archive_read, ptr %6, i32 0, i32 7
  %8 = load ptr, ptr %7, align 8, !tbaa !59
  %9 = getelementptr inbounds nuw %struct.archive_read_filter, ptr %8, i32 0, i32 4
  %10 = load ptr, ptr %9, align 8, !tbaa !53
  %11 = getelementptr inbounds nuw %struct.archive_read_filter_vtable, ptr %10, i32 0, i32 2
  %12 = load ptr, ptr %11, align 8, !tbaa !91
  %13 = icmp ne ptr %12, null
  br i1 %13, label %15, label %14

14:                                               ; preds = %2
  store i32 0, ptr %3, align 4
  br label %28

15:                                               ; preds = %2
  %16 = load ptr, ptr %4, align 8, !tbaa !4
  %17 = getelementptr inbounds nuw %struct.archive_read, ptr %16, i32 0, i32 7
  %18 = load ptr, ptr %17, align 8, !tbaa !59
  %19 = getelementptr inbounds nuw %struct.archive_read_filter, ptr %18, i32 0, i32 4
  %20 = load ptr, ptr %19, align 8, !tbaa !53
  %21 = getelementptr inbounds nuw %struct.archive_read_filter_vtable, ptr %20, i32 0, i32 2
  %22 = load ptr, ptr %21, align 8, !tbaa !91
  %23 = load ptr, ptr %4, align 8, !tbaa !4
  %24 = getelementptr inbounds nuw %struct.archive_read, ptr %23, i32 0, i32 7
  %25 = load ptr, ptr %24, align 8, !tbaa !59
  %26 = load ptr, ptr %5, align 8, !tbaa !90
  %27 = call i32 %22(ptr noundef %25, ptr noundef %26)
  store i32 %27, ptr %3, align 4
  br label %28

28:                                               ; preds = %15, %14
  %29 = load i32, ptr %3, align 4
  ret i32 %29
}