; Function Attrs: nounwind uwtable
define dso_local i32 @__archive_read_header(ptr noundef readonly captures(none) %0, ptr noundef %1) local_unnamed_addr #0 {
  %3 = getelementptr inbounds nuw i8, ptr %0, i64 632
  %4 = load ptr, ptr %3, align 8, !tbaa !53
  %5 = getelementptr inbounds nuw i8, ptr %4, i64 32
  %6 = load ptr, ptr %5, align 8, !tbaa !47
  %7 = getelementptr inbounds nuw i8, ptr %6, i64 16
  %8 = load ptr, ptr %7, align 8, !tbaa !83
  %.not = icmp eq ptr %8, null
  br i1 %.not, label %11, label %9

9:                                                ; preds = %2
  %10 = tail call i32 %8(ptr noundef nonnull %4, ptr noundef %1) #15
  br label %11

11:                                               ; preds = %2, %9
  %.0 = phi i32 [ %10, %9 ], [ 0, %2 ]
  ret i32 %.0
}